target datalayout = "e-m:e-p270:32:32-p271:32:32-p272:64:64-i64:64-i128:128-f80:128-n8:16:32:64-S128"
target triple = "x86_64-pc-linux-gnu"

@ett_data = internal global i32 0, align 4
@.str.1643 = private unnamed_addr constant [11 x i8] c", Size: %u\00", align 1
@.str.1644 = private unnamed_addr constant [11 x i8] c", Data: %s\00", align 1

; Function Attrs: null_pointer_is_valid sspstrong uwtable
define internal i32 @c_dissect_blob(ptr noundef %0, i32 noundef %1, i32 noundef %2, i32 noundef %3, ptr noundef %4, i32 noundef %5) #0 {
  %7 = alloca ptr, align 8
  %8 = alloca i32, align 4
  %9 = alloca i32, align 4
  %10 = alloca i32, align 4
  %11 = alloca ptr, align 8
  %12 = alloca i32, align 4
  %13 = alloca ptr, align 8
  %14 = alloca ptr, align 8
  %15 = alloca i32, align 4
  store ptr %0, ptr %7, align 8
  store i32 %1, ptr %8, align 4
  store i32 %2, ptr %9, align 4
  store i32 %3, ptr %10, align 4
  store ptr %4, ptr %11, align 8
  store i32 %5, ptr %12, align 4
  call void @llvm.lifetime.start.p0(i64 8, ptr %13) #14
  call void @llvm.lifetime.start.p0(i64 8, ptr %14) #14
  call void @llvm.lifetime.start.p0(i64 4, ptr %15) #14
  %16 = load ptr, ptr %11, align 8
  %17 = load i32, ptr %12, align 4
  %18 = call i32 @tvb_get_letohl(ptr noundef %16, i32 noundef %17)
  store i32 %18, ptr %15, align 4
  %19 = load ptr, ptr %7, align 8
  %20 = load i32, ptr %8, align 4
  %21 = load ptr, ptr %11, align 8
  %22 = load i32, ptr %12, align 4
  %23 = load i32, ptr %15, align 4
  %24 = add i32 %23, 4
  %25 = call ptr @proto_tree_add_item(ptr noundef %19, i32 noundef %20, ptr noundef %21, i32 noundef %22, i32 noundef %24, i32 noundef 0)
  store ptr %25, ptr %13, align 8
  %26 = load ptr, ptr %13, align 8
  %27 = load i32, ptr @ett_data, align 4
  %28 = call ptr @proto_item_add_subtree(ptr noundef %26, i32 noundef %27)
  store ptr %28, ptr %14, align 8
  %29 = load ptr, ptr %13, align 8
  %30 = load i32, ptr %15, align 4
  call void (ptr, ptr, ...) @proto_item_append_text(ptr noundef %29, ptr noundef @.str.1643, i32 noundef %30)
  %31 = load i32, ptr %15, align 4
  %32 = icmp ne i32 %31, 0
  br i1 %32, label %33, label %41

33:                                               ; preds = %6
  %34 = load ptr, ptr %13, align 8
  %35 = call ptr @wmem_packet_scope()
  %36 = load ptr, ptr %11, align 8
  %37 = load i32, ptr %12, align 4
  %38 = add i32 %37, 4
  %39 = load i32, ptr %15, align 4
  %40 = call ptr @tvb_bytes_to_str(ptr noundef %35, ptr noundef %36, i32 noundef %38, i32 noundef %39)
  call void (ptr, ptr, ...) @proto_item_append_text(ptr noundef %34, ptr noundef @.str.1644, ptr noundef %40)
  br label %41

41:                                               ; preds = %33, %6
  %42 = load ptr, ptr %14, align 8
  %43 = load i32, ptr %10, align 4
  %44 = load ptr, ptr %11, align 8
  %45 = load i32, ptr %12, align 4
  %46 = call ptr @proto_tree_add_item(ptr noundef %42, i32 noundef %43, ptr noundef %44, i32 noundef %45, i32 noundef 4, i32 noundef -2147483648)
  %47 = load i32, ptr %12, align 4
  %48 = add i32 %47, 4
  store i32 %48, ptr %12, align 4
  %49 = load ptr, ptr %14, align 8
  %50 = load i32, ptr %9, align 4
  %51 = load ptr, ptr %11, align 8
  %52 = load i32, ptr %12, align 4
  %53 = load i32, ptr %15, align 4
  %54 = call ptr @proto_tree_add_item(ptr noundef %49, i32 noundef %50, ptr noundef %51, i32 noundef %52, i32 noundef %53, i32 noundef 0)
  %55 = load i32, ptr %15, align 4
  %56 = load i32, ptr %12, align 4
  %57 = add i32 %56, %55
  store i32 %57, ptr %12, align 4
  %58 = load i32, ptr %12, align 4
  call void @llvm.lifetime.end.p0(i64 4, ptr %15) #14
  call void @llvm.lifetime.end.p0(i64 8, ptr %14) #14
  call void @llvm.lifetime.end.p0(i64 8, ptr %13) #14
  ret i32 %58
}