; Function Attrs: null_pointer_is_valid sspstrong uwtable
define internal fastcc i32 @c_dissect_blob(ptr noundef %0, i32 noundef %1, i32 noundef %2, i32 noundef %3, ptr noundef %4, i32 noundef %5) unnamed_addr #0 {
  %7 = tail call i32 @tvb_get_letohl(ptr noundef %4, i32 noundef %5)
  %8 = add i32 %7, 4
  %9 = tail call ptr @proto_tree_add_item(ptr noundef %0, i32 noundef %1, ptr noundef %4, i32 noundef %5, i32 noundef %8, i32 noundef 0)
  %10 = load i32, ptr @ett_data, align 4
  %11 = tail call ptr @proto_item_add_subtree(ptr noundef %9, i32 noundef %10)
  tail call void (ptr, ptr, ...) @proto_item_append_text(ptr noundef %9, ptr noundef nonnull @.str.1643, i32 noundef %7)
  %.not = icmp eq i32 %7, 0
  br i1 %.not, label %._crit_edge, label %12

._crit_edge:                                      ; preds = %6
  %.pre = add i32 %5, 4
  br label %16

12:                                               ; preds = %6
  %13 = tail call ptr @wmem_packet_scope()
  %14 = add i32 %5, 4
  %15 = tail call ptr @tvb_bytes_to_str(ptr noundef %13, ptr noundef %4, i32 noundef %14, i32 noundef %7)
  tail call void (ptr, ptr, ...) @proto_item_append_text(ptr noundef %9, ptr noundef nonnull @.str.1644, ptr noundef %15)
  br label %16

16:                                               ; preds = %._crit_edge, %12
  %.pre-phi = phi i32 [ %.pre, %._crit_edge ], [ %14, %12 ]
  %17 = tail call ptr @proto_tree_add_item(ptr noundef %11, i32 noundef %3, ptr noundef %4, i32 noundef %5, i32 noundef 4, i32 noundef -2147483648)
  %18 = tail call ptr @proto_tree_add_item(ptr noundef %11, i32 noundef %2, ptr noundef %4, i32 noundef %.pre-phi, i32 noundef %7, i32 noundef 0)
  %19 = add i32 %7, %.pre-phi
  ret i32 %19
}